
addtt:     file format elf32-littleriscv


Disassembly of section .init:

00000000 <_start>:
   0:	10001197          	auipc	gp,0x10001
   4:	80018193          	addi	gp,gp,-2048 # 10000800 <__global_pointer$>
   8:	10004117          	auipc	sp,0x10004
   c:	ff810113          	addi	sp,sp,-8 # 10004000 <__freertos_irq_stack_top>
  10:	00000d13          	li	s10,0
  14:	00000d93          	li	s11,0
  18:	33c00513          	li	a0,828
  1c:	10000597          	auipc	a1,0x10000
  20:	fe458593          	addi	a1,a1,-28 # 10000000 <__bss_start>
  24:	10000617          	auipc	a2,0x10000
  28:	fdc60613          	addi	a2,a2,-36 # 10000000 <__bss_start>
  2c:	00c5fc63          	bgeu	a1,a2,44 <_start+0x44>
  30:	00052283          	lw	t0,0(a0)
  34:	0055a023          	sw	t0,0(a1)
  38:	00450513          	addi	a0,a0,4
  3c:	00458593          	addi	a1,a1,4
  40:	fec5e8e3          	bltu	a1,a2,30 <_start+0x30>
  44:	10000517          	auipc	a0,0x10000
  48:	fbc50513          	addi	a0,a0,-68 # 10000000 <__bss_start>
  4c:	10000597          	auipc	a1,0x10000
  50:	fb458593          	addi	a1,a1,-76 # 10000000 <__bss_start>
  54:	00b57863          	bgeu	a0,a1,64 <_start+0x64>
  58:	00052023          	sw	zero,0(a0)
  5c:	00450513          	addi	a0,a0,4
  60:	feb56ce3          	bltu	a0,a1,58 <_start+0x58>
  64:	1e4000ef          	jal	248 <_init>
  68:	124000ef          	jal	18c <main>
  6c:	00100d13          	li	s10,1

00000070 <loop>:
  70:	0000006f          	j	70 <loop>

Disassembly of section .text:

00000074 <trap_entry>:
  74:	f8010113          	addi	sp,sp,-128
  78:	00112223          	sw	ra,4(sp)
  7c:	00212423          	sw	sp,8(sp)
  80:	00312623          	sw	gp,12(sp)
  84:	00412823          	sw	tp,16(sp)
  88:	00512a23          	sw	t0,20(sp)
  8c:	00612c23          	sw	t1,24(sp)
  90:	00712e23          	sw	t2,28(sp)
  94:	02812023          	sw	s0,32(sp)
  98:	02912223          	sw	s1,36(sp)
  9c:	02a12423          	sw	a0,40(sp)
  a0:	02b12623          	sw	a1,44(sp)
  a4:	02c12823          	sw	a2,48(sp)
  a8:	02d12a23          	sw	a3,52(sp)
  ac:	02e12c23          	sw	a4,56(sp)
  b0:	02f12e23          	sw	a5,60(sp)
  b4:	05012023          	sw	a6,64(sp)
  b8:	05112223          	sw	a7,68(sp)
  bc:	05212423          	sw	s2,72(sp)
  c0:	05312623          	sw	s3,76(sp)
  c4:	05412823          	sw	s4,80(sp)
  c8:	05512a23          	sw	s5,84(sp)
  cc:	05612c23          	sw	s6,88(sp)
  d0:	05712e23          	sw	s7,92(sp)
  d4:	07812023          	sw	s8,96(sp)
  d8:	07912223          	sw	s9,100(sp)
  dc:	07c12823          	sw	t3,112(sp)
  e0:	07d12a23          	sw	t4,116(sp)
  e4:	07e12c23          	sw	t5,120(sp)
  e8:	07f12e23          	sw	t6,124(sp)
  ec:	34202573          	csrr	a0,mcause
  f0:	341025f3          	csrr	a1,mepc

000000f4 <test_if_asynchronous>:
  f4:	01f55613          	srli	a2,a0,0x1f
  f8:	00060663          	beqz	a2,104 <handle_synchronous>
  fc:	184000ef          	jal	280 <trap_handler>
 100:	00c0006f          	j	10c <asynchronous_return>

00000104 <handle_synchronous>:
 104:	00458593          	addi	a1,a1,4
 108:	34159073          	csrw	mepc,a1

0000010c <asynchronous_return>:
 10c:	00412083          	lw	ra,4(sp)
 110:	00812103          	lw	sp,8(sp)
 114:	00c12183          	lw	gp,12(sp)
 118:	01012203          	lw	tp,16(sp)
 11c:	01412283          	lw	t0,20(sp)
 120:	01812303          	lw	t1,24(sp)
 124:	01c12383          	lw	t2,28(sp)
 128:	02012403          	lw	s0,32(sp)
 12c:	02412483          	lw	s1,36(sp)
 130:	02812503          	lw	a0,40(sp)
 134:	02c12583          	lw	a1,44(sp)
 138:	03012603          	lw	a2,48(sp)
 13c:	03412683          	lw	a3,52(sp)
 140:	03812703          	lw	a4,56(sp)
 144:	03c12783          	lw	a5,60(sp)
 148:	04012803          	lw	a6,64(sp)
 14c:	04412883          	lw	a7,68(sp)
 150:	04812903          	lw	s2,72(sp)
 154:	04c12983          	lw	s3,76(sp)
 158:	05012a03          	lw	s4,80(sp)
 15c:	05412a83          	lw	s5,84(sp)
 160:	05812b03          	lw	s6,88(sp)
 164:	05c12b83          	lw	s7,92(sp)
 168:	06012c03          	lw	s8,96(sp)
 16c:	06412c83          	lw	s9,100(sp)
 170:	07012e03          	lw	t3,112(sp)
 174:	07412e83          	lw	t4,116(sp)
 178:	07812f03          	lw	t5,120(sp)
 17c:	07c12f83          	lw	t6,124(sp)
 180:	08010113          	addi	sp,sp,128
 184:	30200073          	mret
 188:	0000006f          	j	188 <asynchronous_return+0x7c>

0000018c <main>:
 18c:	fc010113          	addi	sp,sp,-64
 190:	02112e23          	sw	ra,60(sp)
 194:	02812c23          	sw	s0,56(sp)
 198:	04010413          	addi	s0,sp,64
 19c:	00500793          	li	a5,5
 1a0:	fef42623          	sw	a5,-20(s0)
 1a4:	00300793          	li	a5,3
 1a8:	fef42423          	sw	a5,-24(s0)
 1ac:	00100793          	li	a5,1
 1b0:	fef42223          	sw	a5,-28(s0)
 1b4:	100000ef          	jal	2b4 <get_cycle_value>
 1b8:	fca42c23          	sw	a0,-40(s0)
 1bc:	fcb42e23          	sw	a1,-36(s0)
 1c0:	fec42783          	lw	a5,-20(s0)
 1c4:	fe842703          	lw	a4,-24(s0)
 1c8:	02e7f7ab          	.insn	4, 0x02e7f7ab
 1cc:	fef42223          	sw	a5,-28(s0)
 1d0:	0e4000ef          	jal	2b4 <get_cycle_value>
 1d4:	fca42823          	sw	a0,-48(s0)
 1d8:	fcb42a23          	sw	a1,-44(s0)
 1dc:	fd042603          	lw	a2,-48(s0)
 1e0:	fd442683          	lw	a3,-44(s0)
 1e4:	fd842503          	lw	a0,-40(s0)
 1e8:	fdc42583          	lw	a1,-36(s0)
 1ec:	40a60733          	sub	a4,a2,a0
 1f0:	00070813          	mv	a6,a4
 1f4:	01063833          	sltu	a6,a2,a6
 1f8:	40b687b3          	sub	a5,a3,a1
 1fc:	410786b3          	sub	a3,a5,a6
 200:	00068793          	mv	a5,a3
 204:	fce42423          	sw	a4,-56(s0)
 208:	fcf42623          	sw	a5,-52(s0)
 20c:	fe442703          	lw	a4,-28(s0)
 210:	01c00793          	li	a5,28
 214:	00f71c63          	bne	a4,a5,22c <main+0xa0>
 218:	00100d93          	li	s11,1
 21c:	fc842703          	lw	a4,-56(s0)
 220:	fcc42783          	lw	a5,-52(s0)
 224:	00070c93          	mv	s9,a4
 228:	0080006f          	j	230 <main+0xa4>
 22c:	00000d93          	li	s11,0
 230:	00000793          	li	a5,0
 234:	00078513          	mv	a0,a5
 238:	03c12083          	lw	ra,60(sp)
 23c:	03812403          	lw	s0,56(sp)
 240:	04010113          	addi	sp,sp,64
 244:	00008067          	ret

00000248 <_init>:
 248:	ff010113          	addi	sp,sp,-16
 24c:	00112623          	sw	ra,12(sp)
 250:	00812423          	sw	s0,8(sp)
 254:	01010413          	addi	s0,sp,16
 258:	07400793          	li	a5,116
 25c:	30579073          	csrw	mtvec,a5
 260:	000027b7          	lui	a5,0x2
 264:	88878793          	addi	a5,a5,-1912 # 1888 <_data_lma+0x154c>
 268:	30079073          	csrw	mstatus,a5
 26c:	00000013          	nop
 270:	00c12083          	lw	ra,12(sp)
 274:	00812403          	lw	s0,8(sp)
 278:	01010113          	addi	sp,sp,16
 27c:	00008067          	ret

00000280 <trap_handler>:
 280:	fe010113          	addi	sp,sp,-32
 284:	00112e23          	sw	ra,28(sp)
 288:	00812c23          	sw	s0,24(sp)
 28c:	02010413          	addi	s0,sp,32
 290:	fea42623          	sw	a0,-20(s0)
 294:	feb42423          	sw	a1,-24(s0)
 298:	00000097          	auipc	ra,0x0
 29c:	000000e7          	jalr	zero # 0 <_start>
 2a0:	00000013          	nop
 2a4:	01c12083          	lw	ra,28(sp)
 2a8:	01812403          	lw	s0,24(sp)
 2ac:	02010113          	addi	sp,sp,32
 2b0:	00008067          	ret

000002b4 <get_cycle_value>:
 2b4:	fd010113          	addi	sp,sp,-48
 2b8:	02112623          	sw	ra,44(sp)
 2bc:	02812423          	sw	s0,40(sp)
 2c0:	03010413          	addi	s0,sp,48
 2c4:	c00026f3          	rdcycle	a3
 2c8:	fed42623          	sw	a3,-20(s0)
 2cc:	fec42683          	lw	a3,-20(s0)
 2d0:	fed42023          	sw	a3,-32(s0)
 2d4:	fe042223          	sw	zero,-28(s0)
 2d8:	c80026f3          	rdcycleh	a3
 2dc:	fcd42e23          	sw	a3,-36(s0)
 2e0:	fdc42683          	lw	a3,-36(s0)
 2e4:	00068713          	mv	a4,a3
 2e8:	00000793          	li	a5,0
 2ec:	00071593          	slli	a1,a4,0x0
 2f0:	00000513          	li	a0,0
 2f4:	fe042603          	lw	a2,-32(s0)
 2f8:	fe442683          	lw	a3,-28(s0)
 2fc:	00a60733          	mod	a4,a2,a0
 300:	00070813          	mv	a6,a4
 304:	00c83833          	sltu	a6,a6,a2
 308:	00b687b3          	mod	a5,a3,a1
 30c:	00f806b3          	mod	a3,a6,a5
 310:	00068793          	mv	a5,a3
 314:	fee42023          	sw	a4,-32(s0)
 318:	fef42223          	sw	a5,-28(s0)
 31c:	fe042703          	lw	a4,-32(s0)
 320:	fe442783          	lw	a5,-28(s0)
 324:	00070513          	mv	a0,a4
 328:	00078593          	mv	a1,a5
 32c:	02c12083          	lw	ra,44(sp)
 330:	02812403          	lw	s0,40(sp)
 334:	03010113          	addi	sp,sp,48
 338:	00008067          	ret

Disassembly of section .riscv.attributes:

00000000 <.riscv.attributes>:
   0:	3641                	.insn	2, 0x3641
   2:	0000                	.insn	2, 0x
   4:	7200                	.insn	2, 0x7200
   6:	7369                	.insn	2, 0x7369
   8:	01007663          	bgeu	zero,a6,14 <_start+0x14>
   c:	002c                	.insn	2, 0x002c
   e:	0000                	.insn	2, 0x
  10:	1004                	.insn	2, 0x1004
  12:	7205                	.insn	2, 0x7205
  14:	3376                	.insn	2, 0x3376
  16:	6932                	.insn	2, 0x6932
  18:	7032                	.insn	2, 0x7032
  1a:	5f31                	.insn	2, 0x5f31
  1c:	326d                	.insn	2, 0x326d
  1e:	3070                	.insn	2, 0x3070
  20:	7a5f 6369 7273      	.insn	6, 0x727363697a5f
  26:	7032                	.insn	2, 0x7032
  28:	5f30                	.insn	2, 0x5f30
  2a:	6d7a                	.insn	2, 0x6d7a
  2c:	756d                	.insn	2, 0x756d
  2e:	316c                	.insn	2, 0x316c
  30:	3070                	.insn	2, 0x3070
  32:	0800                	.insn	2, 0x0800
  34:	0a01                	.insn	2, 0x0a01
  36:	Address 0x36 is out of bounds.


Disassembly of section .comment:

00000000 <.comment>:
   0:	3a434347          	.insn	4, 0x3a434347
   4:	2820                	.insn	2, 0x2820
   6:	36343067          	.insn	4, 0x36343067
   a:	3639                	.insn	2, 0x3639
   c:	6664                	.insn	2, 0x6664
   e:	3930                	.insn	2, 0x3930
  10:	2936                	.insn	2, 0x2936
  12:	3120                	.insn	2, 0x3120
  14:	2e34                	.insn	2, 0x2e34
  16:	2e32                	.insn	2, 0x2e32
  18:	0030                	.insn	2, 0x0030
  1a:	3a434347          	.insn	4, 0x3a434347
  1e:	2820                	.insn	2, 0x2820
  20:	36343067          	.insn	4, 0x36343067
  24:	3639                	.insn	2, 0x3639
  26:	6664                	.insn	2, 0x6664
  28:	3930                	.insn	2, 0x3930
  2a:	2029                	.insn	2, 0x2029
  2c:	3431                	.insn	2, 0x3431
  2e:	322e                	.insn	2, 0x322e
  30:	302e                	.insn	2, 0x302e
	...
