
mac_with:     file format elf32-littleriscv


Disassembly of section .init:

00000000 <_start>:
   0:	10001197          	auipc	gp,0x10001
   4:	84018193          	addi	gp,gp,-1984 # 10000840 <__global_pointer$>
   8:	10004117          	auipc	sp,0x10004
   c:	ff810113          	addi	sp,sp,-8 # 10004000 <__freertos_irq_stack_top>
  10:	00000d13          	li	s10,0
  14:	00000d93          	li	s11,0
  18:	47000513          	li	a0,1136
  1c:	10000597          	auipc	a1,0x10000
  20:	fe458593          	addi	a1,a1,-28 # 10000000 <_data>
  24:	10000617          	auipc	a2,0x10000
  28:	01c60613          	addi	a2,a2,28 # 10000040 <__bss_start>
  2c:	00c5fc63          	bgeu	a1,a2,44 <_start+0x44>
  30:	00052283          	lw	t0,0(a0)
  34:	0055a023          	sw	t0,0(a1)
  38:	00450513          	addi	a0,a0,4
  3c:	00458593          	addi	a1,a1,4
  40:	fec5e8e3          	bltu	a1,a2,30 <_start+0x30>
  44:	10000517          	auipc	a0,0x10000
  48:	ffc50513          	addi	a0,a0,-4 # 10000040 <__bss_start>
  4c:	10000597          	auipc	a1,0x10000
  50:	ff458593          	addi	a1,a1,-12 # 10000040 <__bss_start>
  54:	00b57863          	bgeu	a0,a1,64 <_start+0x64>
  58:	00052023          	sw	zero,0(a0)
  5c:	00450513          	addi	a0,a0,4
  60:	feb56ce3          	bltu	a0,a1,58 <_start+0x58>
  64:	318000ef          	jal	37c <_init>
  68:	124000ef          	jal	18c <main>
  6c:	00100d13          	li	s10,1

00000070 <loop>:
  70:	0000006f          	j	70 <loop>

Disassembly of section .text:

00000074 <trap_entry>:
  74:	f8010113          	addi	sp,sp,-128
  78:	00112223          	sw	ra,4(sp)
  7c:	00212423          	sw	sp,8(sp)
  80:	00312623          	sw	gp,12(sp)
  84:	00412823          	sw	tp,16(sp)
  88:	00512a23          	sw	t0,20(sp)
  8c:	00612c23          	sw	t1,24(sp)
  90:	00712e23          	sw	t2,28(sp)
  94:	02812023          	sw	s0,32(sp)
  98:	02912223          	sw	s1,36(sp)
  9c:	02a12423          	sw	a0,40(sp)
  a0:	02b12623          	sw	a1,44(sp)
  a4:	02c12823          	sw	a2,48(sp)
  a8:	02d12a23          	sw	a3,52(sp)
  ac:	02e12c23          	sw	a4,56(sp)
  b0:	02f12e23          	sw	a5,60(sp)
  b4:	05012023          	sw	a6,64(sp)
  b8:	05112223          	sw	a7,68(sp)
  bc:	05212423          	sw	s2,72(sp)
  c0:	05312623          	sw	s3,76(sp)
  c4:	05412823          	sw	s4,80(sp)
  c8:	05512a23          	sw	s5,84(sp)
  cc:	05612c23          	sw	s6,88(sp)
  d0:	05712e23          	sw	s7,92(sp)
  d4:	07812023          	sw	s8,96(sp)
  d8:	07912223          	sw	s9,100(sp)
  dc:	07c12823          	sw	t3,112(sp)
  e0:	07d12a23          	sw	t4,116(sp)
  e4:	07e12c23          	sw	t5,120(sp)
  e8:	07f12e23          	sw	t6,124(sp)
  ec:	34202573          	csrr	a0,mcause
  f0:	341025f3          	csrr	a1,mepc

000000f4 <test_if_asynchronous>:
  f4:	01f55613          	srli	a2,a0,0x1f
  f8:	00060663          	beqz	a2,104 <handle_synchronous>
  fc:	2b8000ef          	jal	3b4 <trap_handler>
 100:	00c0006f          	j	10c <asynchronous_return>

00000104 <handle_synchronous>:
 104:	00458593          	addi	a1,a1,4
 108:	34159073          	csrw	mepc,a1

0000010c <asynchronous_return>:
 10c:	00412083          	lw	ra,4(sp)
 110:	00812103          	lw	sp,8(sp)
 114:	00c12183          	lw	gp,12(sp)
 118:	01012203          	lw	tp,16(sp)
 11c:	01412283          	lw	t0,20(sp)
 120:	01812303          	lw	t1,24(sp)
 124:	01c12383          	lw	t2,28(sp)
 128:	02012403          	lw	s0,32(sp)
 12c:	02412483          	lw	s1,36(sp)
 130:	02812503          	lw	a0,40(sp)
 134:	02c12583          	lw	a1,44(sp)
 138:	03012603          	lw	a2,48(sp)
 13c:	03412683          	lw	a3,52(sp)
 140:	03812703          	lw	a4,56(sp)
 144:	03c12783          	lw	a5,60(sp)
 148:	04012803          	lw	a6,64(sp)
 14c:	04412883          	lw	a7,68(sp)
 150:	04812903          	lw	s2,72(sp)
 154:	04c12983          	lw	s3,76(sp)
 158:	05012a03          	lw	s4,80(sp)
 15c:	05412a83          	lw	s5,84(sp)
 160:	05812b03          	lw	s6,88(sp)
 164:	05c12b83          	lw	s7,92(sp)
 168:	06012c03          	lw	s8,96(sp)
 16c:	06412c83          	lw	s9,100(sp)
 170:	07012e03          	lw	t3,112(sp)
 174:	07412e83          	lw	t4,116(sp)
 178:	07812f03          	lw	t5,120(sp)
 17c:	07c12f83          	lw	t6,124(sp)
 180:	08010113          	addi	sp,sp,128
 184:	30200073          	mret
 188:	0000006f          	j	188 <asynchronous_return+0x7c>

0000018c <main>:
 18c:	f8010113          	addi	sp,sp,-128
 190:	06112e23          	sw	ra,124(sp)
 194:	06812c23          	sw	s0,120(sp)
 198:	08010413          	addi	s0,sp,128
 19c:	100007b7          	lui	a5,0x10000
 1a0:	00078793          	mv	a5,a5
 1a4:	0007a883          	lw	a7,0(a5) # 10000000 <_data>
 1a8:	0047a803          	lw	a6,4(a5)
 1ac:	0087a503          	lw	a0,8(a5)
 1b0:	00c7a583          	lw	a1,12(a5)
 1b4:	0107a603          	lw	a2,16(a5)
 1b8:	0147a683          	lw	a3,20(a5)
 1bc:	0187a703          	lw	a4,24(a5)
 1c0:	01c7a783          	lw	a5,28(a5)
 1c4:	fb142023          	sw	a7,-96(s0)
 1c8:	fb042223          	sw	a6,-92(s0)
 1cc:	faa42423          	sw	a0,-88(s0)
 1d0:	fab42623          	sw	a1,-84(s0)
 1d4:	fac42823          	sw	a2,-80(s0)
 1d8:	fad42a23          	sw	a3,-76(s0)
 1dc:	fae42c23          	sw	a4,-72(s0)
 1e0:	faf42e23          	sw	a5,-68(s0)
 1e4:	100007b7          	lui	a5,0x10000
 1e8:	02078793          	addi	a5,a5,32 # 10000020 <_data+0x20>
 1ec:	0007a883          	lw	a7,0(a5)
 1f0:	0047a803          	lw	a6,4(a5)
 1f4:	0087a503          	lw	a0,8(a5)
 1f8:	00c7a583          	lw	a1,12(a5)
 1fc:	0107a603          	lw	a2,16(a5)
 200:	0147a683          	lw	a3,20(a5)
 204:	0187a703          	lw	a4,24(a5)
 208:	01c7a783          	lw	a5,28(a5)
 20c:	f9142023          	sw	a7,-128(s0)
 210:	f9042223          	sw	a6,-124(s0)
 214:	f8a42423          	sw	a0,-120(s0)
 218:	f8b42623          	sw	a1,-116(s0)
 21c:	f8c42823          	sw	a2,-112(s0)
 220:	f8d42a23          	sw	a3,-108(s0)
 224:	f8e42c23          	sw	a4,-104(s0)
 228:	f8f42e23          	sw	a5,-100(s0)
 22c:	fe042623          	sw	zero,-20(s0)
 230:	1b8000ef          	jal	3e8 <get_cycle_value>
 234:	fea42023          	sw	a0,-32(s0)
 238:	feb42223          	sw	a1,-28(s0)
 23c:	1ac000ef          	jal	3e8 <get_cycle_value>
 240:	fca42c23          	sw	a0,-40(s0)
 244:	fcb42e23          	sw	a1,-36(s0)
 248:	fd842603          	lw	a2,-40(s0)
 24c:	fdc42683          	lw	a3,-36(s0)
 250:	fe042503          	lw	a0,-32(s0)
 254:	fe442583          	lw	a1,-28(s0)
 258:	40a60733          	sub	a4,a2,a0
 25c:	00070813          	mv	a6,a4
 260:	01063833          	sltu	a6,a2,a6
 264:	40b687b3          	sub	a5,a3,a1
 268:	410786b3          	sub	a3,a5,a6
 26c:	00068793          	mv	a5,a3
 270:	fce42823          	sw	a4,-48(s0)
 274:	fcf42a23          	sw	a5,-44(s0)
 278:	170000ef          	jal	3e8 <get_cycle_value>
 27c:	fea42023          	sw	a0,-32(s0)
 280:	feb42223          	sw	a1,-28(s0)
 284:	fe042623          	sw	zero,-20(s0)
 288:	0400006f          	j	2c8 <main+0x13c>
 28c:	fec42703          	lw	a4,-20(s0)
 290:	fa040793          	addi	a5,s0,-96
 294:	00271713          	slli	a4,a4,0x2
 298:	00f707b3          	add	a5,a4,a5
 29c:	0007a783          	lw	a5,0(a5)
 2a0:	fec42683          	lw	a3,-20(s0)
 2a4:	f8040713          	addi	a4,s0,-128
 2a8:	00269693          	slli	a3,a3,0x2
 2ac:	00e68733          	add	a4,a3,a4
 2b0:	00072703          	lw	a4,0(a4)
 2b4:	02e7d7ab          	.insn	4, 0x02e7d7ab
 2b8:	fcf42623          	sw	a5,-52(s0)
 2bc:	fec42783          	lw	a5,-20(s0)
 2c0:	00178793          	addi	a5,a5,1
 2c4:	fef42623          	sw	a5,-20(s0)
 2c8:	fec42703          	lw	a4,-20(s0)
 2cc:	00700793          	li	a5,7
 2d0:	fae7dee3          	bge	a5,a4,28c <main+0x100>
 2d4:	00000793          	li	a5,0
 2d8:	00000713          	li	a4,0
 2dc:	02e7d7ab          	.insn	4, 0x02e7d7ab
 2e0:	fcf42623          	sw	a5,-52(s0)
 2e4:	104000ef          	jal	3e8 <get_cycle_value>
 2e8:	fca42c23          	sw	a0,-40(s0)
 2ec:	fcb42e23          	sw	a1,-36(s0)
 2f0:	fd842703          	lw	a4,-40(s0)
 2f4:	fdc42783          	lw	a5,-36(s0)
 2f8:	fe042503          	lw	a0,-32(s0)
 2fc:	fe442583          	lw	a1,-28(s0)
 300:	40a70633          	sub	a2,a4,a0
 304:	00060813          	mv	a6,a2
 308:	01073833          	sltu	a6,a4,a6
 30c:	40b786b3          	sub	a3,a5,a1
 310:	410687b3          	sub	a5,a3,a6
 314:	00078693          	mv	a3,a5
 318:	fd042503          	lw	a0,-48(s0)
 31c:	fd442583          	lw	a1,-44(s0)
 320:	40a60733          	sub	a4,a2,a0
 324:	00070813          	mv	a6,a4
 328:	01063833          	sltu	a6,a2,a6
 32c:	40b687b3          	sub	a5,a3,a1
 330:	410786b3          	sub	a3,a5,a6
 334:	00068793          	mv	a5,a3
 338:	fce42023          	sw	a4,-64(s0)
 33c:	fcf42223          	sw	a5,-60(s0)
 340:	fec42703          	lw	a4,-20(s0)
 344:	00800793          	li	a5,8
 348:	00f71c63          	bne	a4,a5,360 <main+0x1d4>
 34c:	00100d93          	li	s11,1
 350:	fc042703          	lw	a4,-64(s0)
 354:	fc442783          	lw	a5,-60(s0)
 358:	00070c93          	mv	s9,a4
 35c:	0080006f          	j	364 <main+0x1d8>
 360:	00000d93          	li	s11,0
 364:	00000793          	li	a5,0
 368:	00078513          	mv	a0,a5
 36c:	07c12083          	lw	ra,124(sp)
 370:	07812403          	lw	s0,120(sp)
 374:	08010113          	addi	sp,sp,128
 378:	00008067          	ret

0000037c <_init>:
 37c:	ff010113          	addi	sp,sp,-16
 380:	00112623          	sw	ra,12(sp)
 384:	00812423          	sw	s0,8(sp)
 388:	01010413          	addi	s0,sp,16
 38c:	07400793          	li	a5,116
 390:	30579073          	csrw	mtvec,a5
 394:	000027b7          	lui	a5,0x2
 398:	88878793          	addi	a5,a5,-1912 # 1888 <_data_lma+0x1418>
 39c:	30079073          	csrw	mstatus,a5
 3a0:	00000013          	nop
 3a4:	00c12083          	lw	ra,12(sp)
 3a8:	00812403          	lw	s0,8(sp)
 3ac:	01010113          	addi	sp,sp,16
 3b0:	00008067          	ret

000003b4 <trap_handler>:
 3b4:	fe010113          	addi	sp,sp,-32
 3b8:	00112e23          	sw	ra,28(sp)
 3bc:	00812c23          	sw	s0,24(sp)
 3c0:	02010413          	addi	s0,sp,32
 3c4:	fea42623          	sw	a0,-20(s0)
 3c8:	feb42423          	sw	a1,-24(s0)
 3cc:	00000097          	auipc	ra,0x0
 3d0:	000000e7          	jalr	zero # 0 <_start>
 3d4:	00000013          	nop
 3d8:	01c12083          	lw	ra,28(sp)
 3dc:	01812403          	lw	s0,24(sp)
 3e0:	02010113          	addi	sp,sp,32
 3e4:	00008067          	ret

000003e8 <get_cycle_value>:
 3e8:	fd010113          	addi	sp,sp,-48
 3ec:	02112623          	sw	ra,44(sp)
 3f0:	02812423          	sw	s0,40(sp)
 3f4:	03010413          	addi	s0,sp,48
 3f8:	c00026f3          	rdcycle	a3
 3fc:	fed42623          	sw	a3,-20(s0)
 400:	fec42683          	lw	a3,-20(s0)
 404:	fed42023          	sw	a3,-32(s0)
 408:	fe042223          	sw	zero,-28(s0)
 40c:	c80026f3          	rdcycleh	a3
 410:	fcd42e23          	sw	a3,-36(s0)
 414:	fdc42683          	lw	a3,-36(s0)
 418:	00068713          	mv	a4,a3
 41c:	00000793          	li	a5,0
 420:	00071593          	slli	a1,a4,0x0
 424:	00000513          	li	a0,0
 428:	fe042603          	lw	a2,-32(s0)
 42c:	fe442683          	lw	a3,-28(s0)
 430:	00a60733          	add	a4,a2,a0
 434:	00070813          	mv	a6,a4
 438:	00c83833          	sltu	a6,a6,a2
 43c:	00b687b3          	add	a5,a3,a1
 440:	00f806b3          	add	a3,a6,a5
 444:	00068793          	mv	a5,a3
 448:	fee42023          	sw	a4,-32(s0)
 44c:	fef42223          	sw	a5,-28(s0)
 450:	fe042703          	lw	a4,-32(s0)
 454:	fe442783          	lw	a5,-28(s0)
 458:	00070513          	mv	a0,a4
 45c:	00078593          	mv	a1,a5
 460:	02c12083          	lw	ra,44(sp)
 464:	02812403          	lw	s0,40(sp)
 468:	03010113          	addi	sp,sp,48
 46c:	00008067          	ret
